target datalayout = "e-m:e-p270:32:32-p271:32:32-p272:64:64-i64:64-i128:128-f80:128-n8:16:32:64-S128"
target triple = "x86_64-unknown-linux-gnu"

%"class.smt::eq_justification" = type { ptr }
%"class.smt::enode" = type { ptr, ptr, ptr, ptr, i32, i32, i32, i16, i32, i8, i8, %class.ptr_vector, %class.id_var_list, %"struct.smt::trans_justification", %class.approx_set, %class.approx_set, [0 x ptr] }
%class.ptr_vector = type { %class.vector }
%class.vector = type { ptr }
%class.id_var_list = type { i32, ptr }
%"struct.smt::trans_justification" = type { ptr, %"class.smt::eq_justification" }
%class.approx_set = type { %class.approx_set_tpl }
%class.approx_set_tpl = type { i64 }

; Function Attrs: mustprogress nounwind uwtable
define linkonce_odr hidden noundef ptr @_ZNK11id_var_listILin1ELin1EE8get_nextEv(ptr noundef nonnull align 8 dereferenceable(16) %this) #4 comdat align 2 {
entry:
  %this.addr = alloca ptr, align 8
  store ptr %this, ptr %this.addr, align 8
  %this1 = load ptr, ptr %this.addr, align 8
  %m_next = getelementptr inbounds %class.id_var_list, ptr %this1, i32 0, i32 1
  %0 = load ptr, ptr %m_next, align 8
  ret ptr %0
}

; Function Attrs: mustprogress nounwind uwtable
define linkonce_odr hidden noundef i32 @_ZNK11id_var_listILin1ELin1EE7get_varEv(ptr noundef nonnull align 8 dereferenceable(16) %this) #4 comdat align 2 {
entry:
  %this.addr = alloca ptr, align 8
  store ptr %this, ptr %this.addr, align 8
  %this1 = load ptr, ptr %this.addr, align 8
  %bf.load = load i32, ptr %this1, align 8
  %bf.ashr = ashr i32 %bf.load, 8
  ret i32 %bf.ashr
}

; Function Attrs: mustprogress nounwind uwtable
define linkonce_odr hidden noundef i32 @_ZNK11id_var_listILin1ELin1EE6get_idEv(ptr noundef nonnull align 8 dereferenceable(16) %this) #4 comdat align 2 {
entry:
  %this.addr = alloca ptr, align 8
  store ptr %this, ptr %this.addr, align 8
  %this1 = load ptr, ptr %this.addr, align 8
  %bf.load = load i32, ptr %this1, align 8
  %bf.shl = shl i32 %bf.load, 24
  %bf.ashr = ashr i32 %bf.shl, 24
  ret i32 %bf.ashr
}

; Function Attrs: mustprogress uwtable
define linkonce_odr hidden noundef zeroext i1 @_ZNK11id_var_listILin1ELin1EE5emptyEv(ptr noundef nonnull align 8 dereferenceable(16) %this) #5 comdat align 2 {
entry:
  %this.addr = alloca ptr, align 8
  store ptr %this, ptr %this.addr, align 8
  %this1 = load ptr, ptr %this.addr, align 8
  %call = call noundef i32 @_ZNK11id_var_listILin1ELin1EE7get_varEv(ptr noundef nonnull align 8 dereferenceable(16) %this1)
  %cmp = icmp eq i32 %call, -1
  ret i1 %cmp
}

; Function Attrs: mustprogress uwtable
define linkonce_odr hidden noundef i32 @_ZNK11id_var_listILin1ELin1EE4findEi(ptr noundef nonnull align 8 dereferenceable(16) %this, i32 noundef %id) #5 comdat align 2 {
entry:
  %retval = alloca i32, align 4
  %this.addr = alloca ptr, align 8
  %id.addr = alloca i32, align 4
  %l = alloca ptr, align 8
  store ptr %this, ptr %this.addr, align 8
  store i32 %id, ptr %id.addr, align 4
  %this1 = load ptr, ptr %this.addr, align 8
  %call = call noundef zeroext i1 @_ZNK11id_var_listILin1ELin1EE5emptyEv(ptr noundef nonnull align 8 dereferenceable(16) %this1)
  br i1 %call, label %if.then, label %if.end

if.then:                                          ; preds = %entry
  store i32 -1, ptr %retval, align 4
  br label %return

if.end:                                           ; preds = %entry
  store ptr %this1, ptr %l, align 8
  br label %do.body

do.body:                                          ; preds = %do.cond, %if.end
  %0 = load i32, ptr %id.addr, align 4
  %1 = load ptr, ptr %l, align 8
  %call2 = call noundef i32 @_ZNK11id_var_listILin1ELin1EE6get_idEv(ptr noundef nonnull align 8 dereferenceable(16) %1)
  %cmp = icmp eq i32 %0, %call2
  br i1 %cmp, label %if.then3, label %if.end5

if.then3:                                         ; preds = %do.body
  %2 = load ptr, ptr %l, align 8
  %call4 = call noundef i32 @_ZNK11id_var_listILin1ELin1EE7get_varEv(ptr noundef nonnull align 8 dereferenceable(16) %2)
  store i32 %call4, ptr %retval, align 4
  br label %return

if.end5:                                          ; preds = %do.body
  %3 = load ptr, ptr %l, align 8
  %call6 = call noundef ptr @_ZNK11id_var_listILin1ELin1EE8get_nextEv(ptr noundef nonnull align 8 dereferenceable(16) %3)
  store ptr %call6, ptr %l, align 8
  br label %do.cond

do.cond:                                          ; preds = %if.end5
  %4 = load ptr, ptr %l, align 8
  %tobool = icmp ne ptr %4, null
  br i1 %tobool, label %do.body, label %do.end, !llvm.loop !8

do.end:                                           ; preds = %do.cond
  store i32 -1, ptr %retval, align 4
  br label %return

return:                                           ; preds = %do.end, %if.then3, %if.then
  %5 = load i32, ptr %retval, align 4
  ret i32 %5
}

; Function Attrs: mustprogress uwtable
define hidden noundef i32 @_ZNK3smt5enode10get_th_varEi(ptr noundef nonnull align 8 dereferenceable(112) %this, i32 noundef %th_id) #5 align 2 {
entry:
  %this.addr = alloca ptr, align 8
  %th_id.addr = alloca i32, align 4
  store ptr %this, ptr %this.addr, align 8
  store i32 %th_id, ptr %th_id.addr, align 4
  %this1 = load ptr, ptr %this.addr, align 8
  %m_th_var_list = getelementptr inbounds %"class.smt::enode", ptr %this1, i32 0, i32 12
  %0 = load i32, ptr %th_id.addr, align 4
  %call = call noundef i32 @_ZNK11id_var_listILin1ELin1EE4findEi(ptr noundef nonnull align 8 dereferenceable(16) %m_th_var_list, i32 noundef %0)
  ret i32 %call
}