; Function Attrs: mustprogress nofree norecurse nosync nounwind willreturn memory(read, inaccessiblemem: none) uwtable
define hidden noundef i32 @_ZNK3smt5enode10get_th_varEi(ptr nocapture noundef nonnull readonly align 8 dereferenceable(112) %this, i32 noundef %th_id) local_unnamed_addr #6 align 2 {
entry:
  %m_th_var_list = getelementptr inbounds i8, ptr %this, i64 64
  %bf.load.i.i.i = load i32, ptr %m_th_var_list, align 8
  %cmp.i.i = icmp ugt i32 %bf.load.i.i.i, -257
  br i1 %cmp.i.i, label %_ZNK11id_var_listILin1ELin1EE4findEi.exit, label %do.body.i

do.body.i:                                        ; preds = %entry, %if.end5.i
  %l.0.i = phi ptr [ %0, %if.end5.i ], [ %m_th_var_list, %entry ]
  %bf.load.i.i = load i32, ptr %l.0.i, align 8
  %bf.shl.i.i = shl i32 %bf.load.i.i, 24
  %bf.ashr.i.i = ashr exact i32 %bf.shl.i.i, 24
  %cmp.i = icmp eq i32 %bf.ashr.i.i, %th_id
  br i1 %cmp.i, label %if.then3.i, label %if.end5.i

if.then3.i:                                       ; preds = %do.body.i
  %bf.ashr.i5.i = ashr i32 %bf.load.i.i, 8
  br label %_ZNK11id_var_listILin1ELin1EE4findEi.exit

if.end5.i:                                        ; preds = %do.body.i
  %m_next.i.i = getelementptr inbounds i8, ptr %l.0.i, i64 8
  %0 = load ptr, ptr %m_next.i.i, align 8
  %tobool.not.i = icmp eq ptr %0, null
  br i1 %tobool.not.i, label %_ZNK11id_var_listILin1ELin1EE4findEi.exit, label %do.body.i, !llvm.loop !8

_ZNK11id_var_listILin1ELin1EE4findEi.exit:        ; preds = %if.end5.i, %entry, %if.then3.i
  %retval.0.i = phi i32 [ %bf.ashr.i5.i, %if.then3.i ], [ -1, %entry ], [ -1, %if.end5.i ]
  ret i32 %retval.0.i
}